target datalayout = "e-m:e-p270:32:32-p271:32:32-p272:64:64-i64:64-i128:128-f80:128-n8:16:32:64-S128"
target triple = "x86_64-pc-linux-gnu"

%struct.lexbor_str_t = type { ptr, i64 }

; Function Attrs: nounwind uwtable
define internal i64 @lexbor_mraw_data_size(ptr noundef %0) #0 {
  %2 = alloca ptr, align 8
  store ptr %0, ptr %2, align 8
  %3 = load ptr, ptr %2, align 8
  %4 = getelementptr inbounds i8, ptr %3, i64 -8
  %5 = load i64, ptr %4, align 8
  ret i64 %5
}

; Function Attrs: nounwind uwtable
define internal i64 @lexbor_str_size(ptr noundef %0) #0 {
  %2 = alloca ptr, align 8
  store ptr %0, ptr %2, align 8
  %3 = load ptr, ptr %2, align 8
  %4 = getelementptr inbounds %struct.lexbor_str_t, ptr %3, i32 0, i32 0
  %5 = load ptr, ptr %4, align 8
  %6 = call i64 @lexbor_mraw_data_size(ptr noundef %5)
  ret i64 %6
}

; Function Attrs: nounwind uwtable
define hidden ptr @lexbor_str_append(ptr noundef %0, ptr noundef %1, ptr noundef %2, i64 noundef %3) #0 {
  %5 = alloca ptr, align 8
  %6 = alloca ptr, align 8
  %7 = alloca ptr, align 8
  %8 = alloca ptr, align 8
  %9 = alloca i64, align 8
  %10 = alloca ptr, align 8
  %11 = alloca ptr, align 8
  store ptr %0, ptr %6, align 8
  store ptr %1, ptr %7, align 8
  store ptr %2, ptr %8, align 8
  store i64 %3, ptr %9, align 8
  br label %12

12:                                               ; preds = %4
  %13 = load ptr, ptr %6, align 8
  %14 = getelementptr inbounds %struct.lexbor_str_t, ptr %13, i32 0, i32 1
  %15 = load i64, ptr %14, align 8
  %16 = load i64, ptr %9, align 8
  %17 = add i64 %16, 1
  %18 = sub i64 -1, %17
  %19 = icmp ugt i64 %15, %18
  br i1 %19, label %20, label %21

20:                                               ; preds = %12
  store ptr null, ptr %5, align 8
  br label %76

21:                                               ; preds = %12
  %22 = load ptr, ptr %6, align 8
  %23 = getelementptr inbounds %struct.lexbor_str_t, ptr %22, i32 0, i32 1
  %24 = load i64, ptr %23, align 8
  %25 = load i64, ptr %9, align 8
  %26 = add i64 %25, 1
  %27 = add i64 %24, %26
  %28 = load ptr, ptr %6, align 8
  %29 = call i64 @lexbor_str_size(ptr noundef %28)
  %30 = icmp ugt i64 %27, %29
  br i1 %30, label %31, label %50

31:                                               ; preds = %21
  %32 = load ptr, ptr %7, align 8
  %33 = load ptr, ptr %6, align 8
  %34 = getelementptr inbounds %struct.lexbor_str_t, ptr %33, i32 0, i32 0
  %35 = load ptr, ptr %34, align 8
  %36 = load ptr, ptr %6, align 8
  %37 = getelementptr inbounds %struct.lexbor_str_t, ptr %36, i32 0, i32 1
  %38 = load i64, ptr %37, align 8
  %39 = load i64, ptr %9, align 8
  %40 = add i64 %39, 1
  %41 = add i64 %38, %40
  %42 = call ptr @lexbor_mraw_realloc(ptr noundef %32, ptr noundef %35, i64 noundef %41)
  store ptr %42, ptr %11, align 8
  %43 = load ptr, ptr %11, align 8
  %44 = icmp eq ptr %43, null
  br i1 %44, label %45, label %46

45:                                               ; preds = %31
  store ptr null, ptr %5, align 8
  br label %76

46:                                               ; preds = %31
  %47 = load ptr, ptr %11, align 8
  %48 = load ptr, ptr %6, align 8
  %49 = getelementptr inbounds %struct.lexbor_str_t, ptr %48, i32 0, i32 0
  store ptr %47, ptr %49, align 8
  br label %50

50:                                               ; preds = %46, %21
  br label %51

51:                                               ; preds = %50
  %52 = load ptr, ptr %6, align 8
  %53 = getelementptr inbounds %struct.lexbor_str_t, ptr %52, i32 0, i32 0
  %54 = load ptr, ptr %53, align 8
  %55 = load ptr, ptr %6, align 8
  %56 = getelementptr inbounds %struct.lexbor_str_t, ptr %55, i32 0, i32 1
  %57 = load i64, ptr %56, align 8
  %58 = getelementptr inbounds i8, ptr %54, i64 %57
  store ptr %58, ptr %10, align 8
  %59 = load ptr, ptr %10, align 8
  %60 = load ptr, ptr %8, align 8
  %61 = load i64, ptr %9, align 8
  %62 = mul i64 1, %61
  call void @llvm.memcpy.p0.p0.i64(ptr align 1 %59, ptr align 1 %60, i64 %62, i1 false)
  %63 = load i64, ptr %9, align 8
  %64 = load ptr, ptr %6, align 8
  %65 = getelementptr inbounds %struct.lexbor_str_t, ptr %64, i32 0, i32 1
  %66 = load i64, ptr %65, align 8
  %67 = add i64 %66, %63
  store i64 %67, ptr %65, align 8
  %68 = load ptr, ptr %6, align 8
  %69 = getelementptr inbounds %struct.lexbor_str_t, ptr %68, i32 0, i32 0
  %70 = load ptr, ptr %69, align 8
  %71 = load ptr, ptr %6, align 8
  %72 = getelementptr inbounds %struct.lexbor_str_t, ptr %71, i32 0, i32 1
  %73 = load i64, ptr %72, align 8
  %74 = getelementptr inbounds i8, ptr %70, i64 %73
  store i8 0, ptr %74, align 1
  %75 = load ptr, ptr %10, align 8
  store ptr %75, ptr %5, align 8
  br label %76

76:                                               ; preds = %51, %45, %20
  %77 = load ptr, ptr %5, align 8
  ret ptr %77
}